(dp1
S'send_data_W'
p2
ccopy_reg
_reconstructor
p3
(cstd_msgs.msg._Float32MultiArray
Float32MultiArray
p4
c__builtin__
object
p5
NtRp6
(lp7
g3
(cstd_msgs.msg._MultiArrayLayout
MultiArrayLayout
p8
g5
NtRp9
(lp10
(lp11
aI0
aba(lp12
absS'last_state'
p13
S'3-3'
p14
sS'affichage'
p15
I00
sS'bool_slow'
p16
I00
sS'action'
p17
I5
sS'state'
p18
S'2-4'
p19
sS'W'
(dp20
S'9-10-4'
p21
F-0.020736740079839153
sS'6-9-6'
p22
F12.093021418458097
sS'9-10-6'
p23
F0.28725770849539517
sS'1-0-7'
p24
F-0.037272842449475992
sS'9-10-0'
p25
F0.0078810972204914533
sS'7-8-4'
p26
F-0.029186018846498209
sS'9-10-2'
p27
F-0.043891068042202358
sS'6-9-7'
p28
F2.1208702758109008
sS'0-1-0'
p29
F-0.21355503800647163
sS'9-4-4'
p30
F-0.020585288479842381
sS'0-1-2'
p31
F0.14596548067897672
sS'0-1-3'
p32
F1.8105545467339141
sS'0-1-4'
p33
F0.6420309762108356
sS'0-1-5'
p34
F-0.012934864995729253
sS'0-1-6'
p35
F-0.1034580019927467
sS'9-4-5'
p36
F0.18580513479088775
sS'10-10-7'
p37
F0.087262797166457184
sS'6-9-5'
p38
F-0.097640180100831891
sS'3-6-0'
p39
F-0.076959938795352303
sS'1-0-2'
p40
F0.10400151902177709
sS'0-8-7'
p41
F-0.092561205377156161
sS'6-9-2'
p42
F-1.687214649084197
sS'1-0-3'
p43
F0.46605369719409456
sS'10-10-5'
p44
F0.11585425849774394
sS'6-9-3'
p45
F-2.8128278576510284
sS'7-3-1'
p46
F-1.697232724696861
sS'6-9-4'
p47
F-1.3377219578145605
sS'10-10-4'
p48
F-0.0088701855436436258
sS'6-9-0'
p49
F-0.3992043421600156
sS'7-3-0'
p50
F0.055617338062877789
sS'10-10-3'
p51
F-0.0078821712297344089
sS'6-9-1'
p52
F-1.2678522555768112
sS'7-3-3'
p53
F-2.3442437008046482
sS'1-9-4'
p54
F-0.32564843807105276
sS'3-6-1'
p55
F-0.41424051064321932
sS'7-3-2'
p56
F-0.64330151526738277
sS'0-8-6'
p57
F0.32674226330604567
sS'2-0-7'
p58
F-0.063298639490177472
sS'0-6-7'
p59
F-3.6541680698580219
sS'7-1-3'
p60
F-1.839667740329981
sS'0-6-5'
p61
F1.7643717471612885
sS'0-6-4'
p62
F-0.96594054513220839
sS'0-6-3'
p63
F-1.1075427940410489
sS'0-6-2'
p64
F23.347698651092863
sS'0-6-1'
p65
F10.167619240567245
sS'7-1-2'
p66
F-2.4406834658091885
sS'7-3-7'
p67
F9.7066770514776053
sS'7-3-6'
p68
F1.5475609389553353
sS'3-6-2'
p69
F-0.3384881393126401
sS'0-8-1'
p70
F0
sS'2-0-6'
p71
F-0.092114751522939575
sS'0-1-7'
p72
F-0.080159509469940965
sS'0-8-0'
p73
F0
sS'0-8-3'
p74
F0
sS'1-8-2'
p75
F7.591980074128279
sS'8-9-0'
p76
F-0.28554027028719237
sS'8-9-1'
p77
F-0.32285964726809235
sS'8-9-2'
p78
F-0.47614121513164853
sS'8-9-3'
p79
F-0.47344748625893185
sS'8-9-4'
p80
F-0.16356692759348607
sS'8-9-5'
p81
F0.75084406777136747
sS'8-9-6'
p82
F0.73257151615405758
sS'8-9-7'
p83
F0.79603698661656941
sS'8-6-7'
p84
F-0.048945073409946464
sS'8-6-6'
p85
F0.072386557820649913
sS'8-6-5'
p86
F1.0405946029966839
sS'8-6-4'
p87
F0.24649080514707583
sS'8-6-3'
p88
F-0.25152903638422119
sS'8-6-2'
p89
F-0.18889710118627878
sS'8-6-1'
p90
F-0.2850522052016341
sS'8-6-0'
p91
F-0.0068424877987981504
sS'1-10-4'
p92
F-0.0015156828222397556
sS'1-10-5'
p93
F0
sS'1-10-6'
p94
F-0.04699366922083871
sS'1-10-7'
p95
F0
sS'1-10-0'
p96
F0.27263093142012401
sS'0-8-2'
p97
F2.3851063022355246
sS'1-10-2'
p98
F0.077330756236722198
sS'1-10-3'
p99
F-0.0015466151247344436
sS'4-7-5'
p100
F3.892355052039262
sS'8-5-4'
p101
F-0.16135187685046778
sS'8-5-5'
p102
F-0.0051944988478050819
sS'8-5-6'
p103
F0.033943770923836464
sS'8-5-7'
p104
F1.4243864716858698
sS'8-5-0'
p105
F0.082250808167852241
sS'8-5-1'
p106
F-0.30797206573798391
sS'8-5-2'
p107
F-0.13248656248555377
sS'8-5-3'
p108
F-0.16712053046780759
sS'4-7-0'
p109
F0.018895680000000005
sS'4-7-1'
p110
F-0.17949913845124446
sS'5-9-5'
p111
F-2.2301950841583298
sS'4-0-1'
p112
F-0.12373181587190232
sS'5-9-7'
p113
F29.102096208677466
sS'5-9-6'
p114
F-0.79328612298830536
sS'5-9-1'
p115
F-1.0403532324409546
sS'5-9-0'
p116
F-3.1049890299102363
sS'5-9-3'
p117
F-2.196224751432168
sS'4-0-0'
p118
F-0.15953025420360417
sS'4-0-3'
p119
F0.0081826768670550214
sS'4-0-2'
p120
F-0.043415722682846894
sS'9-10-5'
p121
F-0.0034422914866264944
sS'4-10-5'
p122
F-0.012472783152201294
sS'4-0-5'
p123
F1.3070323499737624
sS'4-0-4'
p124
F1.6739178854190937
sS'8-1-0'
p125
F-0.61986874226798117
sS'8-1-1'
p126
F-0.91855402263556951
sS'8-1-2'
p127
F-1.1232012402600176
sS'8-1-3'
p128
F-1.4488823350458229
sS'8-1-4'
p129
F-0.41289559823770283
sS'8-1-5'
p130
F1.0678081163066766
sS'8-1-6'
p131
F5.4180946286606444
sS'8-1-7'
p132
F0.79563895457138401
sS'8-2-3'
p133
F-1.205997769236163
sS'8-2-2'
p134
F-1.4105861028322688
sS'8-2-1'
p135
F-1.1861719334624286
sS'8-2-0'
p136
F-0.53046764767671151
sS'8-2-7'
p137
F5.8799342097668088
sS'8-2-6'
p138
F2.32407568857341
sS'8-2-5'
p139
F1.0422549742300908
sS'8-2-4'
p140
F-0.88666563312931612
sS'3-8-4'
p141
F-4.3185072876925314
sS'2-0-0'
p142
F0.065936486332758212
sS'1-1-1'
p143
F-0.057393708094347733
sS'1-1-0'
p144
F-0.083720070266476973
sS'1-1-3'
p145
F0.57418393609181639
sS'1-1-2'
p146
F0.14206569995091631
sS'1-1-5'
p147
F1.1972572293312667
sS'1-1-4'
p148
F0.50192433879115794
sS'1-1-7'
p149
F-1.2149087708973503
sS'1-1-6'
p150
F-0.016443026596145244
sS'9-10-7'
p151
F0.21691796869446694
sS'1-6-6'
p152
F-3.4078160197841334
sS'1-6-7'
p153
F-0.044875238970886855
sS'1-6-4'
p154
F-0.36317641991782457
sS'1-6-5'
p155
F0.22746423141561023
sS'1-6-2'
p156
F-1.3326382420299092
sS'1-6-3'
p157
F55.45596727686975
sS'1-6-0'
p158
F-0.42469520313990544
sS'1-6-1'
p159
F0
sS'1-5-5'
p160
F-5.3868658593420795
sS'1-5-4'
p161
F1.4779858253926561
sS'1-5-7'
p162
F-8.8011520977155193
sS'1-5-6'
p163
F-0.1117404536801388
sS'1-5-1'
p164
F-4.269634441305727
sS'1-5-0'
p165
F-6.0971633405281862
sS'1-5-3'
p166
F60.496265064652761
sS'1-5-2'
p167
F-1.4312113721672102
sS'1-8-1'
p168
F7.7475577730152061
sS'2-3-1'
p169
F-0.37756111461174119
sS'9-2-2'
p170
F-0.62596580910925048
sS'9-2-3'
p171
F-0.64751900058260015
sS'9-2-0'
p172
F-0.12320027490521993
sS'9-2-1'
p173
F-0.48188522422167501
sS'9-2-6'
p174
F2.1686963708688047
sS'9-2-7'
p175
F1.0905689085400248
sS'9-2-4'
p176
F-0.45886028580729554
sS'9-2-5'
p177
F0.7901746847069282
sS'1-9-1'
p178
F2.3397668907749432
sS'1-9-0'
p179
F0
sS'1-9-3'
p180
F0
sS'1-9-2'
p181
F0.70800030368315769
sS'1-9-5'
p182
F-0.25408641334396187
sS'2-0-5'
p183
F0.74057642180164651
sS'1-9-7'
p184
F0
sS'1-9-6'
p185
F0
sS'4-10-7'
p186
F2.2366344777808775
sS'2-0-4'
p187
F0.29042821902518756
sS'2-0-3'
p188
F0.52843068346814459
sS'2-0-2'
p189
F0.04472806067182182
sS'2-0-1'
p190
F-0.17931887149054707
sS'9-1-1'
p191
F-0.54703993066954215
sS'9-1-0'
p192
F-0.12703167393847548
sS'9-1-3'
p193
F-1.103714491590114
sS'9-1-2'
p194
F-0.82104579237916886
sS'9-1-5'
p195
F1.5546032437172492
sS'9-1-4'
p196
F-0.4898072516926712
sS'9-1-7'
p197
F0.68896793919264965
sS'9-1-6'
p198
F2.1827968308819536
sS'9-10-3'
p199
F-0.02272875954067375
sS'1-2-2'
p200
F-0.043577401033169871
sS'1-2-3'
p201
F3.266501693496263
sS'1-2-0'
p202
F-0.40184814210153047
sS'1-2-1'
p203
F-0.7650307534326688
sS'1-2-6'
p204
F-0.55560921251462225
sS'1-2-7'
p205
F-1.1672473113788095
sS'1-2-4'
p206
F0.4162055615182873
sS'1-2-5'
p207
F4.4218600902015819
sS'9-5-5'
p208
F0.52365993827667989
sS'9-5-4'
p209
F-0.020205692960019492
sS'9-5-7'
p210
F0.18634942351096478
sS'9-5-6'
p211
F0.27245079165223651
sS'9-5-1'
p212
F-0.34746551079572729
sS'9-5-0'
p213
F0.66991772277992723
sS'9-5-3'
p214
F-0.06220483037321306
sS'9-5-2'
p215
F-0.24193290023528727
sS'7-7-1'
p216
F-0.61273705223247477
sS'4-9-4'
p217
F-1.6799712803971298
sS'9-4-1'
p218
F-0.1699105960762464
sS'7-7-0'
p219
F-0.061822349401579046
sS'0-10-4'
p220
F-0.00059945859327197872
sS'4-9-5'
p221
F-0.19072213416711659
sS'0-10-0'
p222
F-0.39894425812417122
sS'3-2-3'
p223
F0.32790785102054004
sS'2-10-4'
p224
F-0.060390376862809791
sS'1-4-0'
p225
F-6.2869293658510284
sS'1-4-1'
p226
F-8.0671826510775961
sS'1-4-2'
p227
F2.3977815364759207
sS'1-4-3'
p228
F-2.5996307424541549
sS'1-4-4'
p229
F46.435170453773409
sS'1-4-5'
p230
F-0.18818658366225949
sS'1-4-6'
p231
F-0.10778485226781903
sS'1-4-7'
p232
F-4.3634172551564667
sS'1-7-3'
p233
F0.1281893586226481
sS'1-7-2'
p234
F2.2544508044825493
sS'1-7-1'
p235
F11.19601376631379
sS'1-7-0'
p236
F2.081085148624592
sS'1-7-7'
p237
F-1.1575004907658732
sS'1-7-6'
p238
F-0.9299771516528379
sS'1-7-5'
p239
F0
sS'1-7-4'
p240
F-0.50717221324701967
sS'4-9-7'
p241
F2.412514233568043
sS'9-8-4'
p242
F-0.031176618753539654
sS'9-8-5'
p243
F0.29416652245553432
sS'9-8-6'
p244
F0.1379548000067774
sS'9-8-7'
p245
F0.11733174749324367
sS'9-8-0'
p246
F-0.054121509458021792
sS'9-8-1'
p247
F-0.091170261023148361
sS'9-8-2'
p248
F-0.09534883986542253
sS'9-8-3'
p249
F-0.054922450695298587
sS'9-0-4'
p250
F-0.23196055837387042
sS'9-0-5'
p251
F3.1635842561343499
sS'9-0-6'
p252
F1.3211158279202324
sS'9-0-7'
p253
F0.35115336871928793
sS'9-0-0'
p254
F-0.36802688765928881
sS'9-0-1'
p255
F-0.5985279898145337
sS'9-0-2'
p256
F-0.75225229267810989
sS'9-0-3'
p257
F-0.53297667912420543
sS'9-3-7'
p258
F3.4185711962790473
sS'9-3-6'
p259
F0.58021928992057126
sS'9-3-5'
p260
F0.15063935500644379
sS'9-3-4'
p261
F-0.24017789051709396
sS'9-3-3'
p262
F-0.52370029903323512
sS'9-3-2'
p263
F-0.40027463751740833
sS'9-3-1'
p264
F-0.35073311521351913
sS'9-3-0'
p265
F-0.19646982804718843
sS'4-9-0'
p266
F3.7321836345294228
sS'4-4-0'
p267
F1.5304634723527932
sS'9-7-3'
p268
F-0.065185118397401903
sS'9-7-2'
p269
F-0.15784894309528286
sS'9-7-1'
p270
F-0.077588111936382265
sS'9-7-0'
p271
F0.058367843792428618
sS'9-7-7'
p272
F0.11594849569540014
sS'9-7-6'
p273
F0.15323735239989433
sS'9-7-5'
p274
F0.33741330195525454
sS'9-7-4'
p275
F0.010813000406177707
sS'4-9-1'
p276
F-0.18294964341824513
sS'7-9-7'
p277
F1.0823778887226401
sS'1-3-7'
p278
F-2.1882457966161528
sS'1-3-6'
p279
F1.6946444838522619
sS'1-3-5'
p280
F-0.65496363877139585
sS'1-3-4'
p281
F0.16947489435197088
sS'1-3-3'
p282
F12.685673285644604
sS'1-3-2'
p283
F1.8157831475162083
sS'1-3-1'
p284
F-1.653564906879877
sS'1-3-0'
p285
F-0.71665078667355431
sS'4-9-2'
p286
F-0.44857600125346064
sS'7-9-6'
p287
F1.933151014848961
sS'9-4-0'
p288
F-0.069252067024202626
sS'1-0-5'
p289
F-0.044383818692284173
sS'9-4-2'
p290
F-0.14008904685878998
sS'9-4-3'
p291
F-0.29458199795191403
sS'1-0-0'
p292
F0.020798677170855033
sS'1-0-1'
p293
F-0.064988536062185687
sS'9-4-6'
p294
F0.36208498228603125
sS'9-4-7'
p295
F0.77344492449591251
sS'9-9-1'
p296
F-0.083494101596750872
sS'9-9-0'
p297
F-0.11834529733028609
sS'9-9-3'
p298
F-0.17280051664905921
sS'9-9-2'
p299
F-0.081329912077803199
sS'9-9-5'
p300
F0.244867087374352
sS'9-9-4'
p301
F-0.034959948961861623
sS'9-9-7'
p302
F0.13575320978608807
sS'3-1-2'
p303
F-0.33358149240683949
sS'4-9-3'
p304
F-0.83068138610070619
sS'7-9-5'
p305
F0.36812616111286106
sS'7-8-2'
p306
F-0.40584722501510639
sS'9-10-1'
p307
F-0.094001015652180442
sS'2-2-1'
p308
F-1.7358119286937808
sS'2-2-0'
p309
F-2.9986737320384576
sS'2-2-3'
p310
F3.4965433673309869
sS'2-2-2'
p311
F-0.72220506349477831
sS'2-2-5'
p312
F2.086780008113315
sS'2-2-4'
p313
F3.5304147578544169
sS'2-2-7'
p314
F-1.8854232038507908
sS'2-2-6'
p315
F4.0520988387352581
sS'7-9-4'
p316
F0.046412419047157177
sS'4-8-1'
p317
F-0.80804828086730729
sS'7-8-3'
p318
F-0.41237185926166586
sS'7-9-3'
p319
F-0.65937817175259139
sS'4-7-6'
p320
F5.1289635577905504
sS'2-6-5'
p321
F-2.8800000000000003
sS'2-6-4'
p322
F64.662000160928955
sS'2-6-7'
p323
F-4.5378930747222714
sS'2-6-6'
p324
F-3.1346229911132997
sS'2-6-1'
p325
F-0.96828701666345185
sS'2-6-0'
p326
F-0.1291798118991144
sS'2-6-3'
p327
F2.0960000000000005
sS'2-6-2'
p328
F-6.6781665920577984
sS'2-9-2'
p329
F-0.13547525667034721
sS'2-9-3'
p330
F-1.7542215786196498
sS'2-9-0'
p331
F8.4903364222493067
sS'2-9-1'
p332
F13.729385510521244
sS'2-9-6'
p333
F-1.097821545238858
sS'2-9-7'
p334
F-0.042454873875157388
sS'2-9-4'
p335
F-0.3969095979077617
sS'2-9-5'
p336
F-0.92238476821827109
sS'2-1-2'
p337
F-0.022975178585280445
sS'2-1-3'
p338
F0.65101503858810938
sS'2-1-0'
p339
F-0.54762416659786528
sS'2-1-1'
p340
F-0.30313261984185885
sS'2-1-6'
p341
F-0.39944649858061215
sS'2-1-7'
p342
F-1.0503654599467516
sS'2-1-4'
p343
F3.7325426138079876
sS'2-1-5'
p344
F0.48455455927639246
sS'7-9-1'
p345
F-0.51216785196115344
sS'0-7-7'
p346
F2.1373392340556236
sS'7-8-6'
p347
F2.1834606558117118
sS'4-7-4'
p348
F-0.18263857330344277
sS'7-9-0'
p349
F-0.29834273484069546
sS'1-8-7'
p350
F0.78073218480308726
sS'7-8-7'
p351
F-0.30786992974215543
sS'4-7-2'
p352
F-0.10894561114262526
sS'7-10-2'
p353
F-0.84310112009067562
sS'7-10-3'
p354
F-0.151717097467926
sS'7-10-0'
p355
F-0.086892905666124676
sS'7-10-1'
p356
F-0.83720553680378162
sS'7-10-6'
p357
F1.8205468877030273
sS'7-10-7'
p358
F1.7740792613334662
sS'7-10-4'
p359
F-0.14546148429880434
sS'7-10-5'
p360
F0.048404598044793218
sS'6-3-0'
p361
F4.0814311816201503
sS'7-8-5'
p362
F2.1301908581492253
sS'4-7-3'
p363
F-0.15531856783779363
sS'6-10-5'
p364
F-0.25175823030870398
sS'6-10-4'
p365
F-0.063765355310894251
sS'6-10-7'
p366
F7.4396990211718492
sS'6-10-6'
p367
F0.12590697576174487
sS'6-10-1'
p368
F-0.62618641089617677
sS'6-10-0'
p369
F-0.11598591793243231
sS'6-3-1'
p370
F-2.7534210831555836
sS'6-10-2'
p371
F-1.8078098215108669
sS'3-4-2'
p372
F-4.7703117644003905
sS'3-4-3'
p373
F-7.891763058624174
sS'3-4-0'
p374
F1.6085160419452953
sS'3-4-1'
p375
F-4.327625131242268
sS'3-4-6'
p376
F39.007605260998901
sS'3-4-7'
p377
F-4.4740365382368328
sS'3-4-4'
p378
F-1.8308349050629209
sS'3-4-5'
p379
F2.7800536587793268
sS'2-4-3'
p380
F-0.36930710221424157
sS'2-4-2'
p381
F-6.2104452105572463
sS'2-4-1'
p382
F-6.5026886579245282
sS'2-4-0'
p383
F-5.1576049916119526
sS'6-3-2'
p384
F-2.7623915404112971
sS'2-4-6'
p385
F-5.7118675615878312
sS'2-4-5'
p386
F55.774213439108706
sS'2-4-4'
p387
F-0.48272638614432695
sS'4-9-6'
p388
F0.37441298527362132
sS'3-10-6'
p389
F-0.63348982905010454
sS'3-10-7'
p390
F4.7216956747088048
sS'3-10-4'
p391
F-0.25870167628197061
sS'3-10-5'
p392
F-0.10065086884184211
sS'3-10-2'
p393
F0.12332874890012405
sS'3-10-3'
p394
F-0.098637851465005255
sS'3-10-0'
p395
F2.9294379104902086
sS'3-10-1'
p396
F0.425812412269166
sS'3-8-6'
p397
F-2.6900327681746394
sS'3-8-7'
p398
F26.849187954605746
sS'6-3-3'
p399
F-1.9113864654111938
sS'3-8-5'
p400
F0
sS'3-8-2'
p401
F-3.0780509712822686
sS'3-8-3'
p402
F-5.0670056538406278
sS'3-8-0'
p403
F14.393884190114576
sS'3-8-1'
p404
F0.31659381576024781
sS'10-10-0'
p405
F0.012095459909904882
sS'10-3-6'
p406
F0.35255045536421015
sS'10-3-7'
p407
F0.81244175808230179
sS'10-3-4'
p408
F-0.11432714603370429
sS'10-3-5'
p409
F0.072707357790331592
sS'10-3-2'
p410
F-0.18343292643943582
sS'10-3-3'
p411
F-0.11575326971040242
sS'10-3-0'
p412
F0.026562011747874273
sS'10-3-1'
p413
F-0.11827611923915285
sS'2-7-0'
p414
F0.27997907230090341
sS'2-7-1'
p415
F-0.47351209819883294
sS'2-7-2'
p416
F-0.1660360540801793
sS'2-7-3'
p417
F-0.35550769371153579
sS'2-7-4'
p418
F0.031326786616560486
sS'2-7-5'
p419
F1.1368410930403972
sS'2-7-6'
p420
F0.52991762876515358
sS'2-7-7'
p421
F0.5402713344793304
sS'2-8-7'
p422
F-2.0329975538594822
sS'2-8-6'
p423
F-0.29225242837838794
sS'2-8-5'
p424
F-1.8072333420752036
sS'2-8-4'
p425
F-1.9647733362904591
sS'2-8-3'
p426
F1.9946466769803983
sS'2-8-2'
p427
F3.6293270792975192
sS'2-8-1'
p428
F15.666835934403185
sS'2-8-0'
p429
F3.3338707518076225
sS'2-3-4'
p430
F15.023236212700692
sS'2-3-5'
p431
F7.0735974183998733
sS'2-3-6'
p432
F-2.1647137295050785
sS'2-3-7'
p433
F-2.169376768553759
sS'2-3-0'
p434
F-3.7154588374227289
sS'4-0-7'
p435
F-0.40687110530267295
sS'2-3-2'
p436
F1.2866504122468254
sS'2-3-3'
p437
F1.498759424003677
sS'10-4-1'
p438
F-0.012322963549449773
sS'10-4-0'
p439
F0.013777569432050878
sS'10-4-3'
p440
F-0.078292260647785647
sS'10-4-2'
p441
F-0.059984390703464972
sS'10-4-5'
p442
F0.17792738094184235
sS'10-4-4'
p443
F-0.04929035063720439
sS'10-4-7'
p444
F0.37298171962774657
sS'10-4-6'
p445
F0.02243787545234683
sS'6-3-6'
p446
F1.4055478553573182
sS'0-10-7'
p447
F-0.095847997418458147
sS'0-10-6'
p448
F0
sS'0-10-5'
p449
F-0.028532152370505871
sS'4-0-6'
p450
F-0.5446687739240692
sS'0-10-3'
p451
F0
sS'0-10-2'
p452
F0.049165195985794594
sS'0-10-1'
p453
F2.1941014886936787
sS'4-10-3'
p454
F-0.049184825245067863
sS'10-7-2'
p455
F-0.025020048541119069
sS'10-7-3'
p456
F-0.032859263335972805
sS'10-7-0'
p457
F-0.0084430349815294535
sS'10-7-1'
p458
F-0.024161022315494753
sS'10-7-6'
p459
F0.040501764201031451
sS'10-7-7'
p460
F-0.018063324302993202
sS'10-7-4'
p461
F0.10927847735221756
sS'10-7-5'
p462
F0.096601737817732458
sS'4-10-2'
p463
F-0.036812990922009285
sS'10-0-5'
p464
F1.0092247256382139
sS'10-0-4'
p465
F-0.33133512295105383
sS'10-0-7'
p466
F-0.10461536334147693
sS'10-0-6'
p467
F1.0478493337734001
sS'10-0-1'
p468
F-0.14259584554410096
sS'10-0-0'
p469
F-0.11831311035890382
sS'10-0-3'
p470
F-0.14370521416072451
sS'10-0-2'
p471
F-0.16557652772345069
sS'9-9-6'
p472
F0.38000762365111201
sS'4-10-1'
p473
F0.37590963204353883
sS'10-10-6'
p474
F0.082235623669507388
sS'10-8-5'
p475
F0.22474565422291479
sS'10-8-4'
p476
F-0.040326484785415229
sS'10-8-7'
p477
F0.047159357713134988
sS'10-8-6'
p478
F0.11297409976110773
sS'10-8-1'
p479
F-0.042010025363101021
sS'10-8-0'
p480
F-0.074973865290278385
sS'10-8-3'
p481
F-0.03373954831768515
sS'10-8-2'
p482
F-0.03665992286064957
sS'4-8-2'
p483
F-0.16078714050425924
sS'6-7-1'
p484
F-0.080710862712508699
sS'3-6-4'
p485
F0.93125802372354971
sS'3-6-5'
p486
F23.387093620809907
sS'3-6-6'
p487
F2.5920000000000005
sS'3-6-7'
p488
F0
sS'3-0-6'
p489
F-0.11823473984420729
sS'3-0-7'
p490
F-0.30956587361510712
sS'3-0-4'
p491
F1.0956639377850341
sS'3-0-5'
p492
F0.4165302168722318
sS'3-0-2'
p493
F0.23984534202977301
sS'3-0-3'
p494
F0.7652622000469903
sS'3-0-0'
p495
F-0.2079164478148483
sS'3-0-1'
p496
F-0.11085314276181066
sS'3-3-5'
p497
F51.896859539799955
sS'3-3-4'
p498
F-5.1195680281439326
sS'3-3-7'
p499
F-1.7552131535354676
sS'3-3-6'
p500
F-1.8829970107429284
sS'3-3-1'
p501
F-5.9929790054730709
sS'3-3-0'
p502
F-2.7651283740607475
sS'3-3-3'
p503
F-0.85545789418278528
sS'3-3-2'
p504
F-7.6675751347631866
sS'3-6-3'
p505
F-0.79024271336626195
sS'5-9-4'
p506
F-1.1164001624850246
sS'4-10-6'
p507
F-0.073146889941668652
sS'3-9-3'
p508
F-1.4653814007573098
sS'3-9-2'
p509
F-0.29489097978719747
sS'3-9-1'
p510
F4.2913358951639093
sS'3-9-0'
p511
F5.7764346807976068
sS'3-9-7'
p512
F0.77979081203821776
sS'3-9-6'
p513
F2.7130895544825995
sS'3-9-5'
p514
F0
sS'3-9-4'
p515
F-3.1220364729457257
sS'6-8-3'
p516
F-2.3796927488616215
sS'6-8-2'
p517
F-2.9695377036337902
sS'6-8-1'
p518
F-0.93424684143074899
sS'6-8-0'
p519
F-1.4506005390886274
sS'6-8-7'
p520
F3.7329211225774643
sS'6-8-6'
p521
F0.28672237674621187
sS'6-8-5'
p522
F11.266351907325213
sS'6-8-4'
p523
F-0.40509055110370773
sS'10-10-1'
p524
F-0.016931974118481311
sS'5-9-2'
p525
F-6.4325270267260297
sS'1-8-4'
p526
F0
sS'10-10-2'
p527
F-0.017557639161664963
sS'6-5-2'
p528
F0.064186862443339127
sS'6-5-3'
p529
F-0.052766037410922298
sS'6-5-0'
p530
F0.44922573292113754
sS'6-5-1'
p531
F0.29468459977724054
sS'6-5-6'
p532
F-0.050299114024470799
sS'6-5-7'
p533
F0.012583897734059254
sS'6-5-4'
p534
F-0.08598471535463563
sS'6-5-5'
p535
F-0.009787818405322642
sS'10-5-4'
p536
F-0.033588218217363332
sS'10-5-5'
p537
F0.0053895804220839977
sS'10-5-6'
p538
F0.27821276412859408
sS'10-5-7'
p539
F0.44059715860896681
sS'10-5-0'
p540
F-0.076426407794357387
sS'10-5-1'
p541
F-0.080461969765799682
sS'10-5-2'
p542
F-0.064520384056721641
sS'10-5-3'
p543
F-0.03494430172811494
sS'8-10-7'
p544
F0.35129441165410413
sS'8-10-6'
p545
F0.57093061793805999
sS'8-10-5'
p546
F-0.054309299578117129
sS'8-10-4'
p547
F0.043032860631279916
sS'8-10-3'
p548
F-0.10162793004529787
sS'8-10-2'
p549
F-0.27175285179767278
sS'8-10-1'
p550
F-0.074327919445474108
sS'8-10-0'
p551
F0.08802157558115338
sS'3-7-1'
p552
F-4.1738623181950638
sS'3-7-0'
p553
F-3.3210354212154045
sS'3-7-3'
p554
F1.2912307199999999
sS'3-7-2'
p555
F-7.5265942939838935
sS'3-7-5'
p556
F0
sS'3-7-4'
p557
F-1.9214059330155628
sS'3-7-7'
p558
F2.4378936863628877
sS'3-7-6'
p559
F54.714372191180473
sS'4-8-0'
p560
F-3.3552826957807369
sS'4-8-3'
p561
F-7.6391950201743537
sS'7-0-2'
p562
F-1.6936016444425923
sS'7-0-3'
p563
F-1.2964275805872829
sS'7-0-0'
p564
F-0.43690752199461486
sS'7-0-1'
p565
F-0.541140965278603
sS'7-0-6'
p566
F-0.84790164922947286
sS'7-0-7'
p567
F-0.3508202866450979
sS'7-0-4'
p568
F2.2214790345406006
sS'7-0-5'
p569
F7.5838179612284042
sS'4-3-2'
p570
F-2.5041681833004064
sS'4-3-3'
p571
F0.17778664176591763
sS'4-3-0'
p572
F-0.11428536994382105
sS'4-3-1'
p573
F-4.1431085261140561
sS'4-3-6'
p574
F24.013617608028991
sS'4-3-7'
p575
F-5.4145443049493895
sS'4-3-4'
p576
F-1.7872923472886224
sS'4-3-5'
p577
F5.9205254608439066
sS'6-1-6'
p578
F0.13287239678006613
sS'6-1-7'
p579
F-0.86013386406659775
sS'6-1-4'
p580
F3.3286007384882517
sS'6-1-5'
p581
F20.990418152233445
sS'6-1-2'
p582
F-4.3434417978899944
sS'6-1-3'
p583
F-3.7014640721889984
sS'6-1-0'
p584
F-2.4571644782734534
sS'6-1-1'
p585
F-2.9413927257669963
sS'6-2-5'
p586
F-0.63453334685410934
sS'6-2-4'
p587
F-4.1992658672146739
sS'6-2-7'
p588
F-2.1784812433290597
sS'6-2-6'
p589
F35.344170982922705
sS'6-2-1'
p590
F-3.9600023579337407
sS'6-2-0'
p591
F-2.0914814080436139
sS'6-2-3'
p592
F-5.1932593902642266
sS'6-2-2'
p593
F-4.3322121955961732
sS'4-1-3'
p594
F2.6993598607709441
sS'10-2-3'
p595
F-0.13556966795828618
sS'10-2-2'
p596
F-0.22733896188887265
sS'10-2-1'
p597
F-0.17634403669985146
sS'10-2-0'
p598
F-0.061813575793567097
sS'10-2-7'
p599
F0.9264661754471053
sS'10-2-6'
p600
F0.46704752366009178
sS'10-2-5'
p601
F0.14686964142176465
sS'10-2-4'
p602
F-0.22989348944761301
sS'10-1-0'
p603
F-0.067857672320632417
sS'10-1-1'
p604
F-0.21881180927553176
sS'10-1-2'
p605
F-0.20455376006282244
sS'10-1-3'
p606
F-0.13297928377218832
sS'10-1-4'
p607
F-0.41672099148148323
sS'10-1-5'
p608
F0.39837589788828309
sS'10-1-6'
p609
F1.0255856558583147
sS'10-1-7'
p610
F1.0558662710820215
sS'4-8-5'
p611
F-4.4248717710865852
sS'1-8-5'
p612
F-1.5930369748934374
sS'7-9-2'
p613
F-0.24608244434739837
sS'10-9-0'
p614
F-0.017442745303812096
sS'10-9-1'
p615
F-0.013643888067083759
sS'10-9-2'
p616
F-0.0073811795759927907
sS'10-9-3'
p617
F-0.015818815740469113
sS'10-9-4'
p618
F-0.010834266859169094
sS'10-9-5'
p619
F0.028789884386311325
sS'10-9-6'
p620
F0.11515057326640776
sS'10-9-7'
p621
F0.029229791862145988
sS'7-4-6'
p622
F0.43675440292527945
sS'7-4-7'
p623
F3.650751055166344
sS'4-4-5'
p624
F2.4791409676003275
sS'4-4-4'
p625
F0.86844522873196717
sS'4-4-7'
p626
F1.4867758114482699
sS'4-4-6'
p627
F3.5541345740719281
sS'4-4-1'
p628
F1.2041231077708725
sS'7-4-4'
p629
F-1.002396935427075
sS'4-4-3'
p630
F-0.48597021477950458
sS'4-4-2'
p631
F-0.29499207139805717
sS'3-2-0'
p632
F-1.8860293107228085
sS'3-2-1'
p633
F-3.7149014131308111
sS'3-2-2'
p634
F2.7160371815918163
sS'7-2-7'
p635
F0.38249816847854479
sS'3-2-4'
p636
F7.4912751527964891
sS'3-2-5'
p637
F5.4544638797687552
sS'3-2-6'
p638
F5.8440268050675499
sS'3-2-7'
p639
F-2.1549593228228039
sS'3-1-3'
p640
F1.5340858240886219
sS'7-4-2'
p641
F-0.74569426034180253
sS'3-1-1'
p642
F-1.6573079847697574
sS'3-1-0'
p643
F1.2441434285159825
sS'3-1-7'
p644
F-0.31604571875030579
sS'3-1-6'
p645
F0.11711266660591341
sS'3-1-5'
p646
F1.5552918632087227
sS'3-1-4'
p647
F0.41062199273293915
sS'7-4-0'
p648
F0.52575013950144578
sS'4-8-4'
p649
F-2.5386147906569327
sS'7-4-1'
p650
F-0.063235963993263922
sS'4-1-4'
p651
F1.6070186220338769
sS'7-7-4'
p652
F0.028873037701804521
sS'0-9-7'
p653
F-0.11591212749373439
sS'7-7-7'
p654
F-0.27591582563291206
sS'4-1-7'
p655
F-1.2185599499911661
sS'0-1-1'
p656
F-0.19451092418570209
sS'4-1-0'
p657
F0.39536397463993306
sS'4-1-1'
p658
F-0.43393903779151066
sS'6-4-7'
p659
F0.083226734283248796
sS'6-4-6'
p660
F-0.066285670262668919
sS'6-4-5'
p661
F0.3219918545938153
sS'6-4-4'
p662
F1.1721012669933375
sS'6-4-3'
p663
F-0.55364330359321412
sS'6-4-2'
p664
F-1.1833297838171242
sS'6-4-1'
p665
F0.51504394885264904
sS'6-4-0'
p666
F3.1713798148728793
sS'7-7-2'
p667
F-0.27875547930731537
sS'4-2-7'
p668
F-2.7996290796412548
sS'4-2-6'
p669
F-2.2901356783820437
sS'6-7-4'
p670
F1.0721523069028773
sS'6-7-5'
p671
F0.153824001031625
sS'6-7-6'
p672
F-0.062827904818244656
sS'6-7-7'
p673
F-0.10055226545506821
sS'6-7-0'
p674
F-0.23971814880939762
sS'4-2-5'
p675
F37.992740596704792
sS'6-7-2'
p676
F0.066276838912420338
sS'6-7-3'
p677
F0.067127071018351109
sS'4-2-4'
p678
F-1.2403958124868573
sS'4-2-3'
p679
F-0.69936109592372209
sS'4-2-2'
p680
F-4.9072358469942436
sS'4-2-1'
p681
F-2.6721622754959014
sS'1-8-6'
p682
F-1.2651659926969125
sS'4-2-0'
p683
F-4.4679531135493313
sS'6-10-3'
p684
F-1.0074985451714882
sS'7-2-4'
p685
F-0.66052837312769674
sS'7-2-5'
p686
F1.3689728570982354
sS'7-2-6'
p687
F9.5210185879350657
sS'7-4-5'
p688
F-1.0106366674249838
sS'7-2-0'
p689
F0.65315988208370612
sS'7-2-1'
p690
F-1.2329733949395323
sS'7-2-2'
p691
F-1.6228733481235942
sS'7-2-3'
p692
F-1.8307334508176414
sS'7-7-5'
p693
F3.6084029344944661
sS'4-1-5'
p694
F1.6812679679314169
sS'4-1-6'
p695
F0.38984261692054678
sS'7-7-6'
p696
F-0.17910933079486863
sS'6-3-4'
p697
F-3.8194794199625335
sS'6-3-5'
p698
F-0.26563566458152987
sS'7-7-3'
p699
F-0.60918602674098321
sS'6-3-7'
p700
F15.313961444466196
sS'6-0-3'
p701
F-0.10743639634421301
sS'6-0-2'
p702
F-1.5422929617042247
sS'6-0-1'
p703
F-0.77305846207323625
sS'6-0-0'
p704
F-0.3322341688781737
sS'6-0-7'
p705
F0.17070276694832556
sS'6-0-6'
p706
F-0.024468662181837086
sS'6-0-5'
p707
F1.2676597070270483
sS'6-0-4'
p708
F6.6786434860439119
sS'4-8-7'
p709
F37.931108617733422
sS'4-6-3'
p710
F0
sS'4-6-2'
p711
F0
sS'4-6-1'
p712
F-0.0041570495999999988
sS'4-6-0'
p713
F0
sS'4-6-7'
p714
F0
sS'4-6-6'
p715
F0.44639620992000018
sS'4-6-5'
p716
F0.10497600000000001
sS'4-6-4'
p717
F-0.10944303206400004
sS'4-7-7'
p718
F-0.017936417688903639
sS'7-1-7'
p719
F-2.31216292506112
sS'7-1-6'
p720
F1.4673607677940643
sS'7-1-5'
p721
F17.296778832133842
sS'7-1-4'
p722
F0.49644782233681861
sS'7-3-5'
p723
F-0.86120559675667452
sS'7-3-4'
p724
F-1.5728299187848185
sS'7-1-1'
p725
F-4.0267723980834607
sS'7-1-0'
p726
F-2.3955103229315693
sS'0-3-6'
p727
F-0.82628306178740152
sS'0-3-7'
p728
F-0.19641478511756677
sS'0-3-4'
p729
F15.096872610515788
sS'0-3-5'
p730
F-0.1539131815387271
sS'0-3-2'
p731
F-0.35192678616930068
sS'0-3-3'
p732
F0.61161264685933725
sS'0-3-0'
p733
F-0.30289422889494289
sS'0-3-1'
p734
F-0.45475070320764754
sS'0-4-1'
p735
F-3.0204115473620972
sS'0-4-0'
p736
F-0.1644691413612846
sS'0-4-3'
p737
F26.125805936677143
sS'0-4-2'
p738
F-0.31498775312569605
sS'0-4-5'
p739
F-0.14234109481221199
sS'0-4-4'
p740
F-0.021744646307494498
sS'0-4-7'
p741
F-0.33818723997608391
sS'0-4-6'
p742
F-0.71046435285204845
sS'2-4-7'
p743
F-2.502255035534096
sS'2-10-1'
p744
F0.46941056539217496
sS'2-10-0'
p745
F1.9080719071823775
sS'2-10-3'
p746
F-0.048885126325542705
sS'2-10-2'
p747
F0.15368034563897229
sS'2-10-5'
p748
F-0.041113337297683406
sS'4-8-6'
p749
F0.054451600770829334
sS'2-10-7'
p750
F0.15695858670178131
sS'2-10-6'
p751
F0
sS'1-8-3'
p752
F-0.26771019600842449
sS'0-0-5'
p753
F0.077815779460319978
sS'0-0-4'
p754
F0.6053912886421986
sS'0-0-7'
p755
F0.016846045109590466
sS'0-0-6'
p756
F-0.0070646544424419868
sS'0-0-1'
p757
F-0.020429423721444736
sS'0-0-0'
p758
F0.027778053747790375
sS'0-0-3'
p759
F0.57224927678343929
sS'0-0-2'
p760
F0.052242841806802526
sS'4-10-0'
p761
F0.69830464914354917
sS'0-7-2'
p762
F7.2590713145720436
sS'0-7-3'
p763
F0
sS'0-7-0'
p764
F1.3493907618638312
sS'0-7-1'
p765
F5.0958632975819498
sS'0-7-6'
p766
F0
sS'0-6-6'
p767
F0.61585192434704483
sS'0-7-4'
p768
F-0.15996058431522792
sS'0-7-5'
p769
F-0.055728760185457651
sS'7-5-3'
p770
F-0.057135500368220418
sS'7-5-2'
p771
F-0.082722173978463001
sS'7-5-1'
p772
F-0.065067678819991454
sS'7-5-0'
p773
F1.1862545913227382
sS'7-5-7'
p774
F0.39594445444156512
sS'7-5-6'
p775
F-0.0029356715795168086
sS'7-5-5'
p776
F-0.016382334198686038
sS'7-5-4'
p777
F-0.096985278319892301
sS'1-8-0'
p778
F0
sS'4-1-2'
p779
F-1.0512132118331046
sS'7-4-3'
p780
F-0.61848182649923855
sS'8-0-5'
p781
F4.1651132922086544
sS'8-0-4'
p782
F-0.29236923594737552
sS'8-0-7'
p783
F-0.58514046791201979
sS'8-0-6'
p784
F1.8867593722359119
sS'8-0-1'
p785
F-0.50600536126361595
sS'8-0-0'
p786
F-0.12690401923713318
sS'8-0-3'
p787
F-0.70246295529558511
sS'8-0-2'
p788
F-0.38120388386928328
sS'0-8-4'
p789
F-0.34491360556927986
sS'0-9-0'
p790
F0
sS'0-9-1'
p791
F1.9061331767455425
sS'0-9-2'
p792
F-0.093894182179248553
sS'0-9-3'
p793
F-0.11762823098609537
sS'0-9-4'
p794
F0.58771742750694189
sS'0-9-5'
p795
F0.18109770361354766
sS'0-9-6'
p796
F0.10210992625681733
sS'5-2-7'
p797
F-6.0414811915725837
sS'8-8-5'
p798
F0.45765554099830086
sS'8-8-4'
p799
F0.097761058724286559
sS'8-8-7'
p800
F-0.0095224793677524677
sS'8-8-6'
p801
F0.6157347849164293
sS'8-8-1'
p802
F-0.18376394863234985
sS'8-8-0'
p803
F-0.17306971076948047
sS'8-8-3'
p804
F-0.20428093409603487
sS'8-8-2'
p805
F-0.17863611431411291
sS'8-7-2'
p806
F-0.21692488147493857
sS'8-7-3'
p807
F-0.12493798859857221
sS'8-7-0'
p808
F-0.24106785946623391
sS'8-7-1'
p809
F-0.091166744918396728
sS'8-7-6'
p810
F0.566688875436828
sS'8-7-7'
p811
F-0.033146362567617098
sS'8-7-4'
p812
F-0.095590418023626167
sS'8-7-5'
p813
F0.63354133348439912
sS'0-2-3'
p814
F3.0072431822902117
sS'0-2-2'
p815
F0.76994258073521371
sS'0-2-1'
p816
F-1.591676779600866
sS'0-2-0'
p817
F-0.912299633036188
sS'0-2-7'
p818
F-0.11980213789517485
sS'0-2-6'
p819
F0.096236402203058652
sS'0-2-5'
p820
F-0.069414863504247581
sS'0-2-4'
p821
F2.4009956878072374
sS'0-8-5'
p822
F0
sS'1-10-1'
p823
F0.38159609582230303
sS'8-4-1'
p824
F-0.32039096071970291
sS'8-4-0'
p825
F0.55317078501023365
sS'8-4-3'
p826
F-0.59732004688449858
sS'8-4-2'
p827
F-0.50886998036600362
sS'8-4-5'
p828
F0.052093895802321551
sS'8-4-4'
p829
F-0.14407203050372083
sS'8-4-7'
p830
F1.2812094126713716
sS'8-4-6'
p831
F0.81743350511513291
sS'4-10-4'
p832
F0.16146595043747841
sS'0-6-0'
p833
F0.29142824527862521
sS'7-8-0'
p834
F-0.19300871333295977
sS'7-8-1'
p835
F-1.4269739975514295
sS'8-3-3'
p836
F-0.7615868455790491
sS'5-2-6'
p837
F37.508024983993572
sS'1-0-4'
p838
F0.45796628855834065
sS'5-2-4'
p839
F-4.172381753058187
sS'5-2-5'
p840
F8.9733403431967993
sS'5-2-2'
p841
F-5.0206168066506871
sS'5-2-3'
p842
F-6.8036150661124584
sS'5-2-0'
p843
F-2.7481894580746302
sS'5-2-1'
p844
F-6.6049999076801127
sS'8-3-6'
p845
F1.3894863725686111
sS'8-3-7'
p846
F2.3191999739930331
sS'8-3-4'
p847
F-0.85362371648884261
sS'8-3-5'
p848
F0.014453755113435274
sS'8-3-2'
p849
F-0.50458327376203815
sS'1-0-6'
p850
F0.090552052433994501
sS'8-3-0'
p851
F0.549414654608542
sS'8-3-1'
p852
F-0.63674702483633572
ssS'V'
(dp853
S'1-10'
p854
F1.3630036326226729
sS'9-1'
p855
F2.6754577470437622
sS'9-0'
p856
F4.7042180902477231
sS'4-2'
p857
F37.831735388462903
sS'8-10'
p858
F1.1025229298760701
sS'7-10'
p859
F3.1573052055079494
sS'4-3'
p860
F32.297061958085031
sS'9-5'
p861
F1.9611378837111229
sS'0-10'
p862
F3.4386856363461327
sS'7-3'
p863
F8.3820837443708669
sS'9-8'
p864
F0.44542678032024891
sS'9-3'
p865
F4.8761481417552339
sS'4-10'
p866
F6.6013944402889928
sS'3-8'
p867
F52.81213855898099
sS'4-6'
p868
F0.8755442565120003
sS'9-2'
p869
F3.4240187389794321
sS'6-8'
p870
F14.293654045060787
sS'6-9'
p871
F13.222860903763102
sS'6-7'
p872
F1.7511420721401094
sS'6-4'
p873
F6.9209697238458441
sS'6-5'
p874
F1.2436868153608502
sS'6-2'
p875
F25.509870347374189
sS'9-10'
p876
F0.65451379921766295
sS'6-0'
p877
F10.675030617675198
sS'6-1'
p878
F20.296588698631449
sS'8-8'
p879
F0.84375639491857235
sS'8-9'
p880
F1.1157940480052866
sS'8-4'
p881
F2.2665091602502678
sS'8-5'
p882
F1.5329110327758808
sS'8-6'
p883
F1.1564121239670624
sS'8-7'
p884
F0.79479190774368436
sS'8-0'
p885
F6.9155734818391075
sS'8-1'
p886
F5.5162795221832202
sS'8-2'
p887
F8.0527515724668426
sS'8-3'
p888
F3.0320277912347109
sS'6-3'
p889
F18.577252615843051
sS'3-10'
p890
F14.217589041458762
sS'0-4'
p891
F42.826400321760445
sS'2-3'
p892
F32.910266034515516
sS'2-0'
p893
F2.6707352175917891
sS'0-7'
p894
F31.251950527145524
sS'2-6'
p895
F96.859701348946061
sS'0-1'
p896
F3.9878653299462714
sS'2-4'
p897
F57.674636987069029
sS'0-3'
p898
F26.844605021319079
sS'2-8'
p899
F37.054847563770387
sS'2-9'
p900
F35.740908624481008
sS'0-8'
p901
F4.5487475091902692
sS'0-9'
p902
F4.8992473869275406
sS'4-0'
p903
F3.4218304805496293
sS'4-1'
p904
F8.1382816853618731
sS'7-9'
p905
F3.4281925616595617
sS'7-8'
p906
F3.0767875404222433
sS'4-4'
p907
F20.684241751597192
sS'9-4'
p908
F1.2538320903636724
sS'9-7'
p909
F0.75031564164017639
sS'4-7'
p910
F16.79175196281161
sS'9-9'
p911
F0.53939628839158227
sS'7-2'
p912
F13.157081857174171
sS'7-1'
p913
F12.491581140098811
sS'7-0'
p914
F9.2769946951826814
sS'7-7'
p915
F3.2394998161722754
sS'7-5'
p916
F2.521940816999066
sS'7-4'
p917
F2.3456198878134127
sS'10-8'
p918
F0.31433853016005647
sS'10-9'
p919
F0.21609870793667635
sS'10-0'
p920
F2.1018657506638063
sS'10-1'
p921
F2.8778086158319232
sS'10-2'
p922
F1.4188472174815432
sS'10-3'
p923
F1.4649442431240447
sS'10-4'
p924
F0.77446915983216336
sS'10-5'
p925
F0.86851644319457566
sS'10-7'
p926
F0.27567057178774435
sS'2-2'
p927
F11.647446087912339
sS'10-10'
p928
F0.49241233838017817
sS'5-9'
p929
F24.376241597072834
sS'0-6'
p930
F60.918636798831571
sS'2-1'
p931
F5.0891365762402421
sS'0-0'
p932
F2.6496584147725084
sS'2-7'
p933
F3.0465601384235947
sS'6-10'
p934
F7.3852034316060626
sS'4-8'
p935
F38.117521038868148
sS'0-2'
p936
F7.1624488779984903
sS'4-9'
p937
F6.3724208160688587
sS'1-9'
p938
F4.9360646860861728
sS'1-8'
p939
F25.988713736695594
sS'1-1'
p940
F2.085931256621675
sS'1-0'
p941
F1.9854540743502327
sS'1-3'
p942
F22.304301364848129
sS'1-2'
p943
F10.342509049510664
sS'1-5'
p944
F71.752966650613061
sS'1-4'
p945
F54.43964107956004
sS'1-7'
p946
F26.1301784447557
sS'1-6'
p947
F100.22046076888543
sS'3-9'
p948
F17.356684177984196
sS'5-2'
p949
F30.180162288083409
sS'3-7'
p950
F83.001197262266871
sS'3-6'
p951
F50.580840684831976
sS'3-4'
p952
F40.203207128313849
sS'3-3'
p953
F51.715881877795667
sS'3-2'
p954
F28.15564164713745
sS'3-1'
p955
F5.1086411584505553
sS'3-0'
p956
F3.5414629853961115
sS'2-10'
p957
F5.0754651288585411
ssS'y'
I0
sS'x'
I0
sS'reward'
p958
F0
s.